target datalayout = "e-m:e-p270:32:32-p271:32:32-p272:64:64-i64:64-i128:128-f80:128-n8:16:32:64-S128"
target triple = "x86_64-pc-linux-gnu"

; Function Attrs: nounwind uwtable
define internal float @avifToLinearLog100Sqrt10(float noundef %0) #0 {
  %2 = alloca float, align 4
  %3 = alloca float, align 4
  store float %0, ptr %2, align 4
  store float 0x3F59E7C6E0000000, ptr %3, align 4
  %4 = load float, ptr %2, align 4
  %5 = fcmp ole float %4, 0.000000e+00
  br i1 %5, label %6, label %7

6:                                                ; preds = %1
  br label %18

7:                                                ; preds = %1
  %8 = load float, ptr %2, align 4
  %9 = fcmp olt float %8, 1.000000e+00
  br i1 %9, label %10, label %12

10:                                               ; preds = %7
  %11 = load float, ptr %2, align 4
  br label %13

12:                                               ; preds = %7
  br label %13

13:                                               ; preds = %12, %10
  %14 = phi float [ %11, %10 ], [ 1.000000e+00, %12 ]
  %15 = fsub float %14, 1.000000e+00
  %16 = fmul float 2.500000e+00, %15
  %17 = call float @powf(float noundef 1.000000e+01, float noundef %16) #4
  br label %18

18:                                               ; preds = %13, %6
  %19 = phi float [ 0x3F59E7C6E0000000, %6 ], [ %17, %13 ]
  ret float %19
}