; Function Attrs: mustprogress nofree nounwind willreturn memory(write) uwtable
define internal float @avifToLinearLog100Sqrt10(float noundef %0) #5 {
  %2 = fcmp ugt float %0, 0.000000e+00
  br i1 %2, label %3, label %9

3:                                                ; preds = %1
  %4 = fcmp olt float %0, 1.000000e+00
  %5 = select i1 %4, float %0, float 1.000000e+00
  %6 = fadd float %5, -1.000000e+00
  %7 = fmul float %6, 2.500000e+00
  %8 = tail call float @powf(float noundef 1.000000e+01, float noundef %7) #9
  br label %9

9:                                                ; preds = %1, %3
  %10 = phi float [ %8, %3 ], [ 0x3F59E7C6E0000000, %1 ]
  ret float %10
}